target datalayout = "e-m:e-p270:32:32-p271:32:32-p272:64:64-i64:64-i128:128-f80:128-n8:16:32:64-S128"
target triple = "x86_64-pc-linux-gnu"

%struct.tuplehash_hash = type { i64, i32, i32, i32, ptr, ptr, ptr }
%struct.TupleHashEntryData = type { ptr, ptr, i32, i32 }

@.str = private unnamed_addr constant [144 x i8] c"size: %lu, members: %u, filled: %f, total chain: %u, max chain: %u, avg chain: %f, total_collisions: %u, max_collisions: %u, avg_collisions: %f\00", align 1
@.str.1 = private unnamed_addr constant [38 x i8] c"../../../src/include/lib/simplehash.h\00", align 1
@__func__.tuplehash_stat = private unnamed_addr constant [15 x i8] c"tuplehash_stat\00", align 1

; Function Attrs: inlinehint nounwind uwtable
define internal i32 @tuplehash_distance(ptr noundef %0, i32 noundef %1, i32 noundef %2) #3 {
  %4 = alloca i32, align 4
  %5 = alloca ptr, align 8
  %6 = alloca i32, align 4
  %7 = alloca i32, align 4
  store ptr %0, ptr %5, align 8
  store i32 %1, ptr %6, align 4
  store i32 %2, ptr %7, align 4
  %8 = load i32, ptr %6, align 4
  %9 = load i32, ptr %7, align 4
  %10 = icmp ule i32 %8, %9
  br i1 %10, label %11, label %15

11:                                               ; preds = %3
  %12 = load i32, ptr %7, align 4
  %13 = load i32, ptr %6, align 4
  %14 = sub i32 %12, %13
  store i32 %14, ptr %4, align 4
  br label %26

15:                                               ; preds = %3
  %16 = load ptr, ptr %5, align 8
  %17 = getelementptr inbounds nuw %struct.tuplehash_hash, ptr %16, i32 0, i32 0
  %18 = load i64, ptr %17, align 8
  %19 = load i32, ptr %7, align 4
  %20 = zext i32 %19 to i64
  %21 = add i64 %18, %20
  %22 = load i32, ptr %6, align 4
  %23 = zext i32 %22 to i64
  %24 = sub i64 %21, %23
  %25 = trunc i64 %24 to i32
  store i32 %25, ptr %4, align 4
  br label %26

26:                                               ; preds = %15, %11
  %27 = load i32, ptr %4, align 4
  ret i32 %27
}

; Function Attrs: inlinehint nounwind uwtable
define internal i32 @tuplehash_initial_bucket(ptr noundef %0, i32 noundef %1) #3 {
  %3 = alloca ptr, align 8
  %4 = alloca i32, align 4
  store ptr %0, ptr %3, align 8
  store i32 %1, ptr %4, align 4
  %5 = load i32, ptr %4, align 4
  %6 = load ptr, ptr %3, align 8
  %7 = getelementptr inbounds nuw %struct.tuplehash_hash, ptr %6, i32 0, i32 2
  %8 = load i32, ptr %7, align 4
  %9 = and i32 %5, %8
  ret i32 %9
}

; Function Attrs: inlinehint nounwind uwtable
define internal i32 @tuplehash_entry_hash(ptr noundef %0, ptr noundef %1) #3 {
  %3 = alloca ptr, align 8
  %4 = alloca ptr, align 8
  store ptr %0, ptr %3, align 8
  store ptr %1, ptr %4, align 8
  %5 = load ptr, ptr %4, align 8
  %6 = getelementptr inbounds nuw %struct.TupleHashEntryData, ptr %5, i32 0, i32 3
  %7 = load i32, ptr %6, align 4
  ret i32 %7
}

; Function Attrs: nounwind uwtable
define dso_local void @tuplehash_stat(ptr noundef %0) #0 {
  %2 = alloca ptr, align 8
  %3 = alloca i32, align 4
  %4 = alloca i32, align 4
  %5 = alloca double, align 8
  %6 = alloca double, align 8
  %7 = alloca i32, align 4
  %8 = alloca ptr, align 8
  %9 = alloca i32, align 4
  %10 = alloca i32, align 4
  %11 = alloca double, align 8
  %12 = alloca i32, align 4
  %13 = alloca i32, align 4
  %14 = alloca i32, align 4
  %15 = alloca ptr, align 8
  %16 = alloca i32, align 4
  %17 = alloca i32, align 4
  store ptr %0, ptr %2, align 8
  call void @llvm.lifetime.start.p0(i64 4, ptr %3) #9
  store i32 0, ptr %3, align 4
  call void @llvm.lifetime.start.p0(i64 4, ptr %4) #9
  store i32 0, ptr %4, align 4
  call void @llvm.lifetime.start.p0(i64 8, ptr %5) #9
  call void @llvm.lifetime.start.p0(i64 8, ptr %6) #9
  call void @llvm.lifetime.start.p0(i64 4, ptr %7) #9
  call void @llvm.lifetime.start.p0(i64 8, ptr %8) #9
  %18 = load ptr, ptr %2, align 8
  %19 = getelementptr inbounds nuw %struct.tuplehash_hash, ptr %18, i32 0, i32 0
  %20 = load i64, ptr %19, align 8
  %21 = mul i64 %20, 4
  %22 = call ptr @palloc0(i64 noundef %21)
  store ptr %22, ptr %8, align 8
  call void @llvm.lifetime.start.p0(i64 4, ptr %9) #9
  store i32 0, ptr %9, align 4
  call void @llvm.lifetime.start.p0(i64 4, ptr %10) #9
  store i32 0, ptr %10, align 4
  call void @llvm.lifetime.start.p0(i64 8, ptr %11) #9
  store i32 0, ptr %7, align 4
  br label %23

23:                                               ; preds = %71, %1
  %24 = load i32, ptr %7, align 4
  %25 = zext i32 %24 to i64
  %26 = load ptr, ptr %2, align 8
  %27 = getelementptr inbounds nuw %struct.tuplehash_hash, ptr %26, i32 0, i32 0
  %28 = load i64, ptr %27, align 8
  %29 = icmp ult i64 %25, %28
  br i1 %29, label %30, label %74

30:                                               ; preds = %23
  call void @llvm.lifetime.start.p0(i64 4, ptr %12) #9
  call void @llvm.lifetime.start.p0(i64 4, ptr %13) #9
  call void @llvm.lifetime.start.p0(i64 4, ptr %14) #9
  call void @llvm.lifetime.start.p0(i64 8, ptr %15) #9
  %31 = load ptr, ptr %2, align 8
  %32 = getelementptr inbounds nuw %struct.tuplehash_hash, ptr %31, i32 0, i32 4
  %33 = load ptr, ptr %32, align 8
  %34 = load i32, ptr %7, align 4
  %35 = zext i32 %34 to i64
  %36 = getelementptr inbounds nuw %struct.TupleHashEntryData, ptr %33, i64 %35
  store ptr %36, ptr %15, align 8
  %37 = load ptr, ptr %15, align 8
  %38 = getelementptr inbounds nuw %struct.TupleHashEntryData, ptr %37, i32 0, i32 2
  %39 = load i32, ptr %38, align 8
  %40 = icmp ne i32 %39, 1
  br i1 %40, label %41, label %42

41:                                               ; preds = %30
  store i32 4, ptr %16, align 4
  br label %68

42:                                               ; preds = %30
  %43 = load ptr, ptr %2, align 8
  %44 = load ptr, ptr %15, align 8
  %45 = call i32 @tuplehash_entry_hash(ptr noundef %43, ptr noundef %44)
  store i32 %45, ptr %12, align 4
  %46 = load ptr, ptr %2, align 8
  %47 = load i32, ptr %12, align 4
  %48 = call i32 @tuplehash_initial_bucket(ptr noundef %46, i32 noundef %47)
  store i32 %48, ptr %13, align 4
  %49 = load ptr, ptr %2, align 8
  %50 = load i32, ptr %13, align 4
  %51 = load i32, ptr %7, align 4
  %52 = call i32 @tuplehash_distance(ptr noundef %49, i32 noundef %50, i32 noundef %51)
  store i32 %52, ptr %14, align 4
  %53 = load i32, ptr %14, align 4
  %54 = load i32, ptr %3, align 4
  %55 = icmp ugt i32 %53, %54
  br i1 %55, label %56, label %58

56:                                               ; preds = %42
  %57 = load i32, ptr %14, align 4
  store i32 %57, ptr %3, align 4
  br label %58

58:                                               ; preds = %56, %42
  %59 = load i32, ptr %14, align 4
  %60 = load i32, ptr %4, align 4
  %61 = add i32 %60, %59
  store i32 %61, ptr %4, align 4
  %62 = load ptr, ptr %8, align 8
  %63 = load i32, ptr %13, align 4
  %64 = zext i32 %63 to i64
  %65 = getelementptr inbounds nuw i32, ptr %62, i64 %64
  %66 = load i32, ptr %65, align 4
  %67 = add i32 %66, 1
  store i32 %67, ptr %65, align 4
  store i32 0, ptr %16, align 4
  br label %68

68:                                               ; preds = %58, %41
  call void @llvm.lifetime.end.p0(i64 8, ptr %15) #9
  call void @llvm.lifetime.end.p0(i64 4, ptr %14) #9
  call void @llvm.lifetime.end.p0(i64 4, ptr %13) #9
  call void @llvm.lifetime.end.p0(i64 4, ptr %12) #9
  %69 = load i32, ptr %16, align 4
  switch i32 %69, label %164 [
    i32 0, label %70
    i32 4, label %71
  ]

70:                                               ; preds = %68
  br label %71

71:                                               ; preds = %70, %68
  %72 = load i32, ptr %7, align 4
  %73 = add i32 %72, 1
  store i32 %73, ptr %7, align 4
  br label %23, !llvm.loop !12

74:                                               ; preds = %23
  store i32 0, ptr %7, align 4
  br label %75

75:                                               ; preds = %106, %74
  %76 = load i32, ptr %7, align 4
  %77 = zext i32 %76 to i64
  %78 = load ptr, ptr %2, align 8
  %79 = getelementptr inbounds nuw %struct.tuplehash_hash, ptr %78, i32 0, i32 0
  %80 = load i64, ptr %79, align 8
  %81 = icmp ult i64 %77, %80
  br i1 %81, label %82, label %109

82:                                               ; preds = %75
  call void @llvm.lifetime.start.p0(i64 4, ptr %17) #9
  %83 = load ptr, ptr %8, align 8
  %84 = load i32, ptr %7, align 4
  %85 = zext i32 %84 to i64
  %86 = getelementptr inbounds nuw i32, ptr %83, i64 %85
  %87 = load i32, ptr %86, align 4
  store i32 %87, ptr %17, align 4
  %88 = load i32, ptr %17, align 4
  %89 = icmp eq i32 %88, 0
  br i1 %89, label %90, label %91

90:                                               ; preds = %82
  store i32 7, ptr %16, align 4
  br label %103

91:                                               ; preds = %82
  %92 = load i32, ptr %17, align 4
  %93 = add i32 %92, -1
  store i32 %93, ptr %17, align 4
  %94 = load i32, ptr %17, align 4
  %95 = load i32, ptr %9, align 4
  %96 = add i32 %95, %94
  store i32 %96, ptr %9, align 4
  %97 = load i32, ptr %17, align 4
  %98 = load i32, ptr %10, align 4
  %99 = icmp ugt i32 %97, %98
  br i1 %99, label %100, label %102

100:                                              ; preds = %91
  %101 = load i32, ptr %17, align 4
  store i32 %101, ptr %10, align 4
  br label %102

102:                                              ; preds = %100, %91
  store i32 0, ptr %16, align 4
  br label %103

103:                                              ; preds = %102, %90
  call void @llvm.lifetime.end.p0(i64 4, ptr %17) #9
  %104 = load i32, ptr %16, align 4
  switch i32 %104, label %164 [
    i32 0, label %105
    i32 7, label %106
  ]

105:                                              ; preds = %103
  br label %106

106:                                              ; preds = %105, %103
  %107 = load i32, ptr %7, align 4
  %108 = add i32 %107, 1
  store i32 %108, ptr %7, align 4
  br label %75, !llvm.loop !13

109:                                              ; preds = %75
  %110 = load ptr, ptr %8, align 8
  call void @pfree(ptr noundef %110)
  %111 = load ptr, ptr %2, align 8
  %112 = getelementptr inbounds nuw %struct.tuplehash_hash, ptr %111, i32 0, i32 1
  %113 = load i32, ptr %112, align 8
  %114 = icmp ugt i32 %113, 0
  br i1 %114, label %115, label %139

115:                                              ; preds = %109
  %116 = load ptr, ptr %2, align 8
  %117 = getelementptr inbounds nuw %struct.tuplehash_hash, ptr %116, i32 0, i32 1
  %118 = load i32, ptr %117, align 8
  %119 = uitofp i32 %118 to double
  %120 = load ptr, ptr %2, align 8
  %121 = getelementptr inbounds nuw %struct.tuplehash_hash, ptr %120, i32 0, i32 0
  %122 = load i64, ptr %121, align 8
  %123 = uitofp i64 %122 to double
  %124 = fdiv double %119, %123
  store double %124, ptr %6, align 8
  %125 = load i32, ptr %4, align 4
  %126 = uitofp i32 %125 to double
  %127 = load ptr, ptr %2, align 8
  %128 = getelementptr inbounds nuw %struct.tuplehash_hash, ptr %127, i32 0, i32 1
  %129 = load i32, ptr %128, align 8
  %130 = uitofp i32 %129 to double
  %131 = fdiv double %126, %130
  store double %131, ptr %5, align 8
  %132 = load i32, ptr %9, align 4
  %133 = uitofp i32 %132 to double
  %134 = load ptr, ptr %2, align 8
  %135 = getelementptr inbounds nuw %struct.tuplehash_hash, ptr %134, i32 0, i32 1
  %136 = load i32, ptr %135, align 8
  %137 = uitofp i32 %136 to double
  %138 = fdiv double %133, %137
  store double %138, ptr %11, align 8
  br label %140

139:                                              ; preds = %109
  store double 0.000000e+00, ptr %6, align 8
  store double 0.000000e+00, ptr %5, align 8
  store double 0.000000e+00, ptr %11, align 8
  br label %140

140:                                              ; preds = %139, %115
  br label %141

141:                                              ; preds = %140
  br i1 false, label %142, label %144

142:                                              ; preds = %141
  %143 = call zeroext i1 @errstart_cold(i32 noundef 15, ptr noundef null) #10
  br i1 %143, label %146, label %161

144:                                              ; preds = %141
  %145 = call zeroext i1 @errstart(i32 noundef 15, ptr noundef null)
  br i1 %145, label %146, label %161

146:                                              ; preds = %144, %142
  %147 = load ptr, ptr %2, align 8
  %148 = getelementptr inbounds nuw %struct.tuplehash_hash, ptr %147, i32 0, i32 0
  %149 = load i64, ptr %148, align 8
  %150 = load ptr, ptr %2, align 8
  %151 = getelementptr inbounds nuw %struct.tuplehash_hash, ptr %150, i32 0, i32 1
  %152 = load i32, ptr %151, align 8
  %153 = load double, ptr %6, align 8
  %154 = load i32, ptr %4, align 4
  %155 = load i32, ptr %3, align 4
  %156 = load double, ptr %5, align 8
  %157 = load i32, ptr %9, align 4
  %158 = load i32, ptr %10, align 4
  %159 = load double, ptr %11, align 8
  %160 = call i32 (ptr, ...) @errmsg_internal(ptr noundef @.str, i64 noundef %149, i32 noundef %152, double noundef %153, i32 noundef %154, i32 noundef %155, double noundef %156, i32 noundef %157, i32 noundef %158, double noundef %159)
  call void @errfinish(ptr noundef @.str.1, i32 noundef 1140, ptr noundef @__func__.tuplehash_stat)
  br label %161

161:                                              ; preds = %146, %144, %142
  br label %162

162:                                              ; preds = %161
  br label %163

163:                                              ; preds = %162
  call void @llvm.lifetime.end.p0(i64 8, ptr %11) #9
  call void @llvm.lifetime.end.p0(i64 4, ptr %10) #9
  call void @llvm.lifetime.end.p0(i64 4, ptr %9) #9
  call void @llvm.lifetime.end.p0(i64 8, ptr %8) #9
  call void @llvm.lifetime.end.p0(i64 4, ptr %7) #9
  call void @llvm.lifetime.end.p0(i64 8, ptr %6) #9
  call void @llvm.lifetime.end.p0(i64 8, ptr %5) #9
  call void @llvm.lifetime.end.p0(i64 4, ptr %4) #9
  call void @llvm.lifetime.end.p0(i64 4, ptr %3) #9
  ret void

164:                                              ; preds = %103, %68
  unreachable
}